target datalayout = "e-m:e-p270:32:32-p271:32:32-p272:64:64-i64:64-i128:128-f80:128-n8:16:32:64-S128"
target triple = "x86_64-pc-linux-gnu"

%struct.strvec = type { ptr, i64, i64 }

@hidden_refs = internal global %struct.strvec { ptr @empty_strvec, i64 0, i64 0 }, align 8
@.str.49 = private unnamed_addr constant [6 x i8] c".have\00", align 1

; Function Attrs: nounwind uwtable
define internal i32 @show_ref_cb(ptr noundef %0, ptr noundef %1, ptr noundef %2, i32 noundef %3, ptr noundef %4) #0 {
  %6 = alloca i32, align 4
  %7 = alloca ptr, align 8
  %8 = alloca ptr, align 8
  %9 = alloca ptr, align 8
  %10 = alloca i32, align 4
  %11 = alloca ptr, align 8
  %12 = alloca ptr, align 8
  %13 = alloca ptr, align 8
  %14 = alloca i32, align 4
  store ptr %0, ptr %7, align 8, !tbaa !11
  store ptr %1, ptr %8, align 8, !tbaa !11
  store ptr %2, ptr %9, align 8, !tbaa !166
  store i32 %3, ptr %10, align 4, !tbaa !4
  store ptr %4, ptr %11, align 8, !tbaa !45
  call void @llvm.lifetime.start.p0(i64 8, ptr %12) #15
  %15 = load ptr, ptr %11, align 8, !tbaa !45
  store ptr %15, ptr %12, align 8, !tbaa !167
  call void @llvm.lifetime.start.p0(i64 8, ptr %13) #15
  %16 = load ptr, ptr %7, align 8, !tbaa !11
  %17 = call ptr @strip_namespace(ptr noundef %16)
  store ptr %17, ptr %13, align 8, !tbaa !11
  %18 = load ptr, ptr %13, align 8, !tbaa !11
  %19 = load ptr, ptr %7, align 8, !tbaa !11
  %20 = call i32 @ref_is_hidden(ptr noundef %18, ptr noundef %19, ptr noundef @hidden_refs)
  %21 = icmp ne i32 %20, 0
  br i1 %21, label %22, label %23

22:                                               ; preds = %5
  store i32 0, ptr %6, align 4
  store i32 1, ptr %14, align 4
  br label %40

23:                                               ; preds = %5
  %24 = load ptr, ptr %13, align 8, !tbaa !11
  %25 = icmp ne ptr %24, null
  br i1 %25, label %33, label %26

26:                                               ; preds = %23
  %27 = load ptr, ptr %12, align 8, !tbaa !167
  %28 = load ptr, ptr %9, align 8, !tbaa !166
  %29 = call i32 @oidset_insert(ptr noundef %27, ptr noundef %28)
  %30 = icmp ne i32 %29, 0
  br i1 %30, label %31, label %32

31:                                               ; preds = %26
  store i32 0, ptr %6, align 4
  store i32 1, ptr %14, align 4
  br label %40

32:                                               ; preds = %26
  store ptr @.str.49, ptr %13, align 8, !tbaa !11
  br label %37

33:                                               ; preds = %23
  %34 = load ptr, ptr %12, align 8, !tbaa !167
  %35 = load ptr, ptr %9, align 8, !tbaa !166
  %36 = call i32 @oidset_insert(ptr noundef %34, ptr noundef %35)
  br label %37

37:                                               ; preds = %33, %32
  %38 = load ptr, ptr %13, align 8, !tbaa !11
  %39 = load ptr, ptr %9, align 8, !tbaa !166
  call void @show_ref(ptr noundef %38, ptr noundef %39)
  store i32 0, ptr %6, align 4
  store i32 1, ptr %14, align 4
  br label %40

40:                                               ; preds = %37, %31, %22
  call void @llvm.lifetime.end.p0(i64 8, ptr %13) #15
  call void @llvm.lifetime.end.p0(i64 8, ptr %12) #15
  %41 = load i32, ptr %6, align 4
  ret i32 %41
}