; Function Attrs: nounwind uwtable
define internal noundef i32 @show_ref_cb(ptr noundef %0, ptr readnone captures(none) %1, ptr noundef %2, i32 %3, ptr noundef %4) #0 {
  %6 = tail call ptr @strip_namespace(ptr noundef %0) #21
  %7 = tail call i32 @ref_is_hidden(ptr noundef %6, ptr noundef %0, ptr noundef nonnull @hidden_refs) #21
  %.not = icmp eq i32 %7, 0
  br i1 %.not, label %8, label %12

8:                                                ; preds = %5
  %.not13 = icmp eq ptr %6, null
  %9 = tail call i32 @oidset_insert(ptr noundef %4, ptr noundef %2) #21
  br i1 %.not13, label %10, label %11

10:                                               ; preds = %8
  %.not14 = icmp eq i32 %9, 0
  br i1 %.not14, label %11, label %12

11:                                               ; preds = %8, %10
  %.0 = phi ptr [ @.str.49, %10 ], [ %6, %8 ]
  tail call fastcc void @show_ref(ptr noundef nonnull %.0, ptr noundef %2)
  br label %12

12:                                               ; preds = %10, %5, %11
  ret i32 0
}